target datalayout = "e-m:e-p270:32:32-p271:32:32-p272:64:64-i64:64-i128:128-f80:128-n8:16:32:64-S128"
target triple = "x86_64-pc-linux-gnu"

@cASN1VideotexString = internal global i64 0, align 8
@.str.67 = private unnamed_addr constant [4 x i8] c"new\00", align 1
@ossl_asn1_VideotexString.rbimpl_id = internal global i64 0, align 8

; Function Attrs: inlinehint nounwind sspstrong willreturn memory(read) uwtable
define internal i64 @rb_intern_const(ptr noundef nonnull %0) #10 {
  %2 = alloca ptr, align 8
  %3 = alloca i64, align 8
  store ptr %0, ptr %2, align 8, !tbaa !29
  call void @llvm.lifetime.start.p0(i64 8, ptr %3) #16
  %4 = load ptr, ptr %2, align 8, !tbaa !29
  %5 = call i64 @strlen(ptr noundef %4) #20
  store i64 %5, ptr %3, align 8, !tbaa !20
  %6 = load ptr, ptr %2, align 8, !tbaa !29
  %7 = load i64, ptr %3, align 8, !tbaa !20
  %8 = call i64 @rb_intern2(ptr noundef %6, i64 noundef %7)
  call void @llvm.lifetime.end.p0(i64 8, ptr %3) #16
  ret i64 %8
}

; Function Attrs: inlinehint nounwind sspstrong memory(argmem: readwrite, inaccessiblemem: readwrite) uwtable
define internal i64 @rbimpl_intern_const(ptr noundef nonnull %0, ptr noundef nonnull %1) #7 {
  %3 = alloca ptr, align 8
  %4 = alloca ptr, align 8
  store ptr %0, ptr %3, align 8, !tbaa !27
  store ptr %1, ptr %4, align 8, !tbaa !29
  br label %5

5:                                                ; preds = %10, %2
  %6 = load ptr, ptr %3, align 8, !tbaa !27
  %7 = load i64, ptr %6, align 8, !tbaa !20
  %8 = icmp ne i64 %7, 0
  %9 = xor i1 %8, true
  br i1 %9, label %10, label %14

10:                                               ; preds = %5
  %11 = load ptr, ptr %4, align 8, !tbaa !29
  %12 = call i64 @rb_intern_const(ptr noundef %11) #20
  %13 = load ptr, ptr %3, align 8, !tbaa !27
  store i64 %12, ptr %13, align 8, !tbaa !20
  br label %5, !llvm.loop !30

14:                                               ; preds = %5
  %15 = load ptr, ptr %3, align 8, !tbaa !27
  %16 = load i64, ptr %15, align 8, !tbaa !20
  ret i64 %16
}

; Function Attrs: nounwind sspstrong uwtable
define internal i64 @ossl_asn1_VideotexString(i32 noundef %0, ptr noundef %1, i64 noundef %2) #0 {
  %4 = alloca i32, align 4
  %5 = alloca ptr, align 8
  %6 = alloca i64, align 8
  %7 = alloca i64, align 8
  store i32 %0, ptr %4, align 4, !tbaa !17
  store ptr %1, ptr %5, align 8, !tbaa !27
  store i64 %2, ptr %6, align 8, !tbaa !20
  %8 = load i64, ptr @cASN1VideotexString, align 8, !tbaa !20
  %9 = call i64 @rbimpl_intern_const(ptr noundef @ossl_asn1_VideotexString.rbimpl_id, ptr noundef @.str.67) #18
  store i64 %9, ptr %7, align 8, !tbaa !20
  %10 = load i64, ptr %7, align 8, !tbaa !20
  %11 = load i32, ptr %4, align 4, !tbaa !17
  %12 = load ptr, ptr %5, align 8, !tbaa !27
  %13 = call i64 @rb_funcallv_public(i64 noundef %8, i64 noundef %10, i32 noundef %11, ptr noundef %12)
  ret i64 %13
}