; Function Attrs: nounwind sspstrong uwtable
define internal i64 @ossl_asn1_VideotexString(i32 noundef %0, ptr noundef %1, i64 %2) #0 {
  %4 = load i64, ptr @cASN1VideotexString, align 8, !tbaa !17
  %.pr.i = load i64, ptr @ossl_asn1_VideotexString.rbimpl_id, align 8, !tbaa !17
  %.not4.i = icmp eq i64 %.pr.i, 0
  br i1 %.not4.i, label %.lr.ph.i, label %rbimpl_intern_const.exit

.lr.ph.i:                                         ; preds = %3, %.lr.ph.i
  %5 = tail call i64 @rb_intern2(ptr noundef nonnull @.str.67, i64 noundef 3) #9
  store i64 %5, ptr @ossl_asn1_VideotexString.rbimpl_id, align 8, !tbaa !17
  %.not.i = icmp eq i64 %5, 0
  br i1 %.not.i, label %.lr.ph.i, label %rbimpl_intern_const.exit, !llvm.loop !23

rbimpl_intern_const.exit:                         ; preds = %.lr.ph.i, %3
  %.lcssa.i = phi i64 [ %.pr.i, %3 ], [ %5, %.lr.ph.i ]
  %6 = tail call i64 @rb_funcallv_public(i64 noundef %4, i64 noundef %.lcssa.i, i32 noundef %0, ptr noundef %1) #9
  ret i64 %6
}